Certificate:
    Data:
        Version: 3 (0x2)
        Serial Number: 10521458497856427125 (0x9203bac23bbf5475)
    Signature Algorithm: sha256WithRSAEncryption
        Issuer: C=US, ST=California, L=Pasadena, O=The Munki Project, OU=Infrastructure, CN=MUNKI_CA/emailAddress=gregneagle@mac.com
        Validity
            Not Before: Mar  8 01:14:42 2025 GMT
            Not After : Mar  8 01:14:42 2026 GMT
        Subject: C=US, ST=California, O=The Munki Project, OU=Infrastructure, CN=munki_client/emailAddress=gregneagle@mac.com
        Subject Public Key Info:
            Public Key Algorithm: rsaEncryption
                Public-Key: (4096 bit)
                Modulus:
                    00:d1:1f:d8:83:94:c6:80:4f:5c:53:9e:18:93:43:
                    f6:c7:48:fa:1a:26:89:91:e5:9e:c8:57:70:78:5b:
                    96:20:37:42:ab:ee:d4:39:a1:35:7d:7b:c7:93:94:
                    49:de:37:d9:42:c4:a1:cf:89:0b:61:3f:8d:c4:39:
                    8a:f4:db:36:ed:e9:bb:06:3d:33:f0:4f:4c:91:26:
                    f5:80:4b:60:12:6f:5e:6c:ed:15:91:27:c3:e1:94:
                    4f:a2:f1:90:73:08:8f:85:49:91:b6:d6:46:65:81:
                    54:19:97:e5:f2:c1:35:4b:e6:81:2b:6a:14:a6:0b:
                    f5:50:26:b7:7b:27:bb:06:60:f7:49:16:89:39:88:
                    72:23:dd:a1:5a:6f:de:b3:8b:bd:ab:db:e5:69:56:
                    3a:66:e7:9d:ac:23:44:99:04:89:6a:86:d8:81:d5:
                    39:fc:d5:68:04:7d:5c:05:5e:3c:ea:b4:58:cf:90:
                    ef:7f:68:a7:8b:4e:7f:33:de:7d:61:ef:af:39:96:
                    9d:6f:39:4d:82:12:51:3a:32:6e:dd:0b:5c:65:ea:
                    df:e4:6e:f6:2c:b4:41:f2:f3:0c:1c:3b:fa:38:fc:
                    ec:7f:4d:d5:28:eb:81:ff:ea:c6:65:b8:ba:44:b7:
                    3e:1f:ff:be:3e:a6:24:bb:fb:0e:36:2b:bd:c4:0e:
                    75:0c:94:bc:93:48:b4:8e:c6:0f:04:3f:27:c7:c4:
                    f4:38:06:e6:2f:17:03:99:4a:62:da:be:a0:66:3e:
                    70:e2:0f:8d:94:6f:34:e6:f2:25:c4:74:06:eb:ff:
                    71:09:6a:2b:0f:dc:22:ff:7e:78:fd:38:c4:d1:a4:
                    dc:2a:82:28:d1:50:21:56:87:9e:42:38:b8:8d:b8:
                    d9:5a:d3:8f:c6:9f:86:67:cb:98:6c:ba:11:dd:7b:
                    be:37:43:d5:f7:d9:55:a8:49:db:10:04:83:70:ba:
                    4f:f3:86:df:07:d8:72:49:f4:c9:59:bb:c5:e7:0b:
                    4d:6e:2b:06:09:36:e8:81:57:78:79:c6:34:17:c1:
                    b1:bd:0a:9b:9d:19:9c:41:72:4c:67:cd:16:cc:b5:
                    1f:2f:26:d1:b8:db:04:48:67:95:3c:f3:05:89:e9:
                    05:af:67:4f:be:1b:79:8a:ad:d0:98:83:9d:ca:5a:
                    c7:37:51:04:49:51:1c:15:e0:b3:14:7b:98:09:78:
                    4b:5f:4c:60:67:7f:5e:df:fc:f9:8b:2f:a1:d7:74:
                    aa:63:2d:a1:45:a0:46:ba:2c:bc:f0:b2:af:90:63:
                    b8:25:3a:57:69:34:37:f2:5d:3e:7e:5c:4f:10:74:
                    2b:b7:cd:a7:23:76:40:26:2d:06:ff:cb:47:47:b4:
                    0f:fa:0d
                Exponent: 65537 (0x10001)
        X509v3 extensions:
            X509v3 Subject Key Identifier: 
                14:7D:72:2B:AE:0B:ED:66:23:19:DD:E2:A8:2B:C2:90:4F:08:5C:12
            X509v3 Basic Constraints: 
                CA:FALSE
            X509v3 Key Usage: 
                Digital Signature, Non Repudiation, Key Encipherment
    Signature Algorithm: sha256WithRSAEncryption
         77:37:5d:14:3e:fc:95:c2:08:70:71:c4:e3:d4:3d:2f:e0:c2:
         fb:27:c9:0f:6f:29:72:3a:a1:41:7c:ff:ed:80:ee:1f:d1:cd:
         cd:db:d6:df:67:00:2f:79:02:15:9d:f1:63:33:9c:f9:87:a6:
         78:a0:a3:7a:75:e1:6c:4a:35:ef:26:fc:ae:67:57:f9:56:ff:
         06:42:64:ea:32:da:7c:ec:e7:84:cf:e3:74:4b:7a:16:e1:aa:
         48:c9:36:67:2e:e3:b9:45:fd:0e:e3:0d:57:c9:4b:64:6f:57:
         40:bd:c4:65:3c:d0:75:04:cf:2f:d8:2f:b5:79:3a:7a:c2:54:
         26:50:68:bf:22:b2:ca:0b:0d:7c:cb:19:42:34:c5:75:36:89:
         77:e4:8a:1d:85:56:87:79:7f:dd:c5:7b:4d:d5:62:43:a5:38:
         59:e8:89:81:30:51:ef:f7:3f:69:59:d0:06:ce:5f:84:17:cd:
         1d:95:f7:a6:11:72:f6:fa:54:bb:0f:01:89:ff:89:87:2b:eb:
         1b:33:15:7d:ae:f4:57:b8:3f:98:ac:d6:12:e7:43:87:f6:5c:
         1f:eb:67:ba:1b:06:13:64:1d:3a:4a:14:55:f2:b3:0a:0f:dc:
         3e:e1:d9:d0:65:2d:bd:87:7b:89:4e:c4:68:23:71:26:2d:10:
         33:ae:e0:a5:b2:b3:1d:1e:59:63:ef:4f:ec:1d:38:c0:bf:94:
         a0:70:24:f7:0e:38:7d:a7:e5:b9:a8:28:1f:dc:19:e1:4c:1a:
         f4:37:02:2d:ba:7a:6c:35:d5:02:4a:ff:69:f1:b6:90:2e:a0:
         f7:b6:1f:d2:57:ec:75:00:2f:db:e6:e0:02:80:91:be:1b:c8:
         e2:df:72:17:91:85:98:c4:25:28:95:27:65:d8:57:9f:77:d0:
         d7:35:33:58:f6:e0:02:78:b6:93:d4:2a:ef:c8:59:a1:31:3f:
         8a:69:bf:5d:c1:2c:05:e3:46:ec:af:4a:3e:03:f7:ea:ce:97:
         f9:f6:56:f9:15:67:78:a1:6a:74:29:87:b2:fa:23:bf:9a:dc:
         ea:50:74:26:d4:cf:b1:1b:15:26:83:ce:a1:0a:1e:f8:3b:46:
         2f:e0:dd:2a:7b:43:fd:9f:7d:de:4b:e4:63:d0:d3:63:dd:ca:
         63:ef:c1:5f:7a:dc:e1:48:22:35:ea:21:51:27:53:05:b7:2e:
         11:be:17:6e:b5:d5:2f:31:fa:f4:41:5d:de:4b:ab:5f:53:d6:
         dd:f9:f4:be:f8:8b:43:b4:68:ed:6b:34:9c:c5:dc:e4:59:2e:
         fc:09:60:65:0e:3a:a6:f5:5b:4a:75:d6:8d:18:78:fb:a8:e9:
         5d:19:c0:23:bb:ad:24:15
-----BEGIN CERTIFICATE-----
MIIF7zCCA9egAwIBAgIJAJIDusI7v1R1MA0GCSqGSIb3DQEBCwUAMIGgMQswCQYD
VQQGEwJVUzETMBEGA1UECBMKQ2FsaWZvcm5pYTERMA8GA1UEBxMIUGFzYWRlbmEx
GjAYBgNVBAoTEVRoZSBNdW5raSBQcm9qZWN0MRcwFQYDVQQLEw5JbmZyYXN0cnVj
dHVyZTERMA8GA1UEAxQITVVOS0lfQ0ExITAfBgkqhkiG9w0BCQEWEmdyZWduZWFn
bGVAbWFjLmNvbTAeFw0yNTAzMDgwMTE0NDJaFw0yNjAzMDgwMTE0NDJaMIGRMQsw
CQYDVQQGEwJVUzETMBEGA1UECBMKQ2FsaWZvcm5pYTEaMBgGA1UEChMRVGhlIE11
bmtpIFByb2plY3QxFzAVBgNVBAsTDkluZnJhc3RydWN0dXJlMRUwEwYDVQQDFAxt
dW5raV9jbGllbnQxITAfBgkqhkiG9w0BCQEWEmdyZWduZWFnbGVAbWFjLmNvbTCC
AiIwDQYJKoZIhvcNAQEBBQADggIPADCCAgoCggIBANEf2IOUxoBPXFOeGJND9sdI
+homiZHlnshXcHhbliA3Qqvu1DmhNX17x5OUSd432ULEoc+JC2E/jcQ5ivTbNu3p
uwY9M/BPTJEm9YBLYBJvXmztFZEnw+GUT6LxkHMIj4VJkbbWRmWBVBmX5fLBNUvm
gStqFKYL9VAmt3snuwZg90kWiTmIciPdoVpv3rOLvavb5WlWOmbnnawjRJkEiWqG
2IHVOfzVaAR9XAVePOq0WM+Q739op4tOfzPefWHvrzmWnW85TYISUToybt0LXGXq
3+Ru9iy0QfLzDBw7+jj87H9N1Sjrgf/qxmW4ukS3Ph//vj6mJLv7DjYrvcQOdQyU
vJNItI7GDwQ/J8fE9DgG5i8XA5lKYtq+oGY+cOIPjZRvNObyJcR0Buv/cQlqKw/c
Iv9+eP04xNGk3CqCKNFQIVaHnkI4uI242VrTj8afhmfLmGy6Ed17vjdD1ffZVahJ
2xAEg3C6T/OG3wfYckn0yVm7xecLTW4rBgk26IFXeHnGNBfBsb0Km50ZnEFyTGfN
Fsy1Hy8m0bjbBEhnlTzzBYnpBa9nT74beYqt0JiDncpaxzdRBElRHBXgsxR7mAl4
S19MYGd/Xt/8+Ysvodd0qmMtoUWgRrosvPCyr5BjuCU6V2k0N/JdPn5cTxB0K7fN
pyN2QCYtBv/LR0e0D/oNAgMBAAGjOTA3MB0GA1UdDgQWBBQUfXIrrgvtZiMZ3eKo
K8KQTwhcEjAJBgNVHRMEAjAAMAsGA1UdDwQEAwIF4DANBgkqhkiG9w0BAQsFAAOC
AgEAdzddFD78lcIIcHHE49Q9L+DC+yfJD28pcjqhQXz/7YDuH9HNzdvW32cAL3kC
FZ3xYzOc+YemeKCjenXhbEo17yb8rmdX+Vb/BkJk6jLafOznhM/jdEt6FuGqSMk2
Zy7juUX9DuMNV8lLZG9XQL3EZTzQdQTPL9gvtXk6esJUJlBovyKyygsNfMsZQjTF
dTaJd+SKHYVWh3l/3cV7TdViQ6U4WeiJgTBR7/c/aVnQBs5fhBfNHZX3phFy9vpU
uw8Bif+JhyvrGzMVfa70V7g/mKzWEudDh/ZcH+tnuhsGE2QdOkoUVfKzCg/cPuHZ
0GUtvYd7iU7EaCNxJi0QM67gpbKzHR5ZY+9P7B04wL+UoHAk9w44fafluagoH9wZ
4Uwa9DcCLbp6bDXVAkr/afG2kC6g97Yf0lfsdQAv2+bgAoCRvhvI4t9yF5GFmMQl
KJUnZdhXn3fQ1zUzWPbgAni2k9Qq78hZoTE/imm/XcEsBeNG7K9KPgP36s6X+fZW
+RVneKFqdCmHsvojv5rc6lB0JtTPsRsVJoPOoQoe+DtGL+DdKntD/Z993kvkY9DT
Y93KY+/BX3rc4UgiNeohUSdTBbcuEb4XbrXVLzH69EFd3kurX1PW3fn0vviLQ7Ro
7Ws0nMXc5Fku/AlgZQ46pvVbSnXWjRh4+6jpXRnAI7utJBU=
-----END CERTIFICATE-----
-----BEGIN RSA PRIVATE KEY-----
MIIJKQIBAAKCAgEA0R/Yg5TGgE9cU54Yk0P2x0j6GiaJkeWeyFdweFuWIDdCq+7U
OaE1fXvHk5RJ3jfZQsShz4kLYT+NxDmK9Ns27em7Bj0z8E9MkSb1gEtgEm9ebO0V
kSfD4ZRPovGQcwiPhUmRttZGZYFUGZfl8sE1S+aBK2oUpgv1UCa3eye7BmD3SRaJ
OYhyI92hWm/es4u9q9vlaVY6ZuedrCNEmQSJaobYgdU5/NVoBH1cBV486rRYz5Dv
f2ini05/M959Ye+vOZadbzlNghJROjJu3QtcZerf5G72LLRB8vMMHDv6OPzsf03V
KOuB/+rGZbi6RLc+H/++PqYku/sONiu9xA51DJS8k0i0jsYPBD8nx8T0OAbmLxcD
mUpi2r6gZj5w4g+NlG805vIlxHQG6/9xCWorD9wi/354/TjE0aTcKoIo0VAhVoee
Qji4jbjZWtOPxp+GZ8uYbLoR3Xu+N0PV99lVqEnbEASDcLpP84bfB9hySfTJWbvF
5wtNbisGCTbogVd4ecY0F8GxvQqbnRmcQXJMZ80WzLUfLybRuNsESGeVPPMFiekF
r2dPvht5iq3QmIOdylrHN1EESVEcFeCzFHuYCXhLX0xgZ39e3/z5iy+h13SqYy2h
RaBGuiy88LKvkGO4JTpXaTQ38l0+flxPEHQrt82nI3ZAJi0G/8tHR7QP+g0CAwEA
AQKCAgBakX80pVc+tKAYuqyMAvA6qLlgX/ZOkHKu82eLSKcA9s3SJpIVD2NaICR0
HtHLAsb+KqileAXMrTiZlg4/Mz1b1lEgR5tZ5Q4VAxlp4bsO4Nq1NAyWG/GynYfL
2vCjUT7PC+imlbBRP6yLlQSKmPCbGY4xnjSpIR6yAsKN/Mv73Dzck30ExLoiHFdI
EpERk2CmsIpvj1+lt4PKzE9mMdfNoe7cc9s0S7xLzXrv/DtHrqmT44JF3K5LH8jp
Tt9gbeymdTtjsx6FSaeSG8t1wfjXTtx+Uywcekjhji9dfwBEdA18qNm7ahuYGTap
UVKidfXa5+idu1jHbNhfz5vU8Cnya3q/GlOcgi+3j6TtXZTMEmCU82ts5QJCzYkK
fB3l/aal+RHHKC+pbH3El8rTINzPNbnSbj0eeUGYZaoXS5pQseoOQpCg4E/QvK/w
XSwKF32n4BYmMfqsJiR0tgY3XSuiepCg4Vt/maBUm3jq24WmjuQiK/C3RGexgcDT
v7ahms94JqnDGXgkETATBSGjq/+Hq+xDhE3reO043yTKxGsvqTWUNkimn3KwdycT
FkfV06qmDKsF+101i9sxgBI/0GkWTKaXi0uIg5dxw6fya49ER774mtANQvZYoZo9
XCbYtglgnI4map/atEO8d/c5XjPjpG+4pP6eCCLj8rsikggtBQKCAQEA60SNo2la
qF5830tWixqkObjRfx7ks5RbOuQC3JpeaFJX/sY4ctTZGG+uxp+TOAdfU4EtkHf9
+Un80F/rkBq/UyRuyYdDXwisDXTXP3ZqP+GfUC9jHSvFBZ8NlCSowH96qmDfPeM2
V/o/8gMo07jRqrgtLO547+mIbTGCS4haTSrplamUZN8e7XL1lG0Yn4n+QVIl8orT
10gHnKM4Kuspx3RehGCc/j/p3dLdZbdbYd/jRAQP7dmgQ/99DTpn/Qd3I7YNOXX8
CrtAmECkV3DeuVqwg6VP4hbGX0xO/A6UGNewP9eVEfts3ymE7OF3RJHCWyfzNhs+
ybIwXIIG2iEAOwKCAQEA442E7Y95OZ7xbmoFYmsHVuhon8gzdlXIdP2NxbdcKTbk
YCCbYFhGFVhmT0Xge/k1CLxMwai+d3aPK5K0awTN+GGWkhNki6mKVpzG7Q350ms8
S2iMRuiC+WLGMnLfYyFQTRMH2sfw9JPKHSpkTe5ZswniwDll2mMdECFE7+HExNx+
ztDUx4VjUmrmjjmNOz+R0qlx1m+9Vfi0uxzU8zN6GyGjyVSedHyYhjU8lskHDjOJ
kCMIvFTfUiPhqj7edNVm4sthslfosvSD4hPhbaEBCdwXjtIU8PGIPJH30aGePQWl
v1oJikYR86yKSCaqiRvCcrph81Kmg1nlgbzcy/JSVwKCAQEAnIZFfZzQVghXJ/Bl
qbKV5FlT+DFDkz52291rEf4aJWnzZWvXjn6R2TIko7zzI2m0QEhHWkCa1kolSzUl
8f/5noU0uBun9Qg9/83mjzBnTAz+A0kjtfqy4CSL0i35n+iwYb6FiBUsyKeT952m
ggYKaHyUgbo+9871l0BDIaGcAo80TQA/3ESdvPio7pEOusYCRM80tAMtIaOofMwS
yGsgprSDVas5h+ZZ3900s0GkKJ/eAhh5yJLrj5HhTvW2zZ8z4qxya/JVN4aRWTpY
nFxZshPmMA/B7/ebDzgjrIq+eTC28CKr6QTP0EE9UKRIx3P6TM9tfmfuBB7rEgDo
MiOWlQKCAQARPFLpO4jPGH7pAhbOUZUIvCnQkHV1bSH12o62fyD37jR2I4IhVg5Y
5404S+6o9UNTGhAmSwXCPrSxdDc+M+r1+U5SWi2vdnQIA2/93KUjjwPOImkdpdbl
1Nl2UMUi2Q8gB2T86VAS9m7ErsVSMc+RhBosvSw90mwNILf8A3nH/3uLZr33Lt9L
CtXTyAAukK4W6sa4m1YYAPKPiauHkEqba3zgbwxhfl5/K+Ee+rMSHE07Iawzt6oC
qr0ZDBIFf3R/kTAhNg9mHqcupJraluthN86A/uCfL2xGSjgfJMK7lIXtbIB0fMI3
VsZSmLsqD3Q3BG8O4x/Bqzl7DjcbK4uZAoIBAQDd/uCWgEEcHBKxyEHHUnfI0Mcf
r2e1OiBDnKX8ffj1lq9DjHzqtbWZSVg4szEgfCnXK23vdYXKrAkyjQtFi92m9/uW
ECMLB/FyG7PD8d9C5BqHFO4X3r+T1O741OdGgDOXXnaXQwZEILt1SmnOVea5R6ac
CxCqiI5m8Dm8Q3Fx4lbelP0jz7Ah3DATV7syw6XgqiSraFqZfVkJWXLJL+WYJFWT
HF0dvtp6GhWBP4rs4HKn4IWVUxV5otkpd4DxpsW+QJdsGsLdlBVURh9rhAZ3Q4gm
vci8dzg2wmtZ6lLD0oG7zXAAl7WgaSZ5+yCEGrlnc7+HYja/TwdXU/Si+F9Z
-----END RSA PRIVATE KEY-----
